; ModuleID = '11/596.c'
source_filename = "11/596.c"
target datalayout = "e-m:e-p270:32:32-p271:32:32-p272:64:64-i64:64-f80:128-n8:16:32:64-S128"
target triple = "x86_64-pc-linux-gnu"

@__const.main.days = private unnamed_addr constant [12 x i32] [i32 31, i32 28, i32 31, i32 30, i32 31, i32 30, i32 31, i32 31, i32 30, i32 31, i32 30, i32 31], align 16
@.str = private unnamed_addr constant [9 x i8] c"%d %d %d\00", align 1
@.str.1 = private unnamed_addr constant [3 x i8] c"%d\00", align 1

; Function Attrs: noinline nounwind uwtable
define dso_local i32 @main(i32 %0, i8** %1) #0 {
  %3 = alloca i32, align 4
  %4 = alloca i32, align 4
  %5 = alloca i8**, align 8
  %6 = alloca [12 x i32], align 16
  %7 = alloca i32, align 4
  %8 = alloca i32, align 4
  %9 = alloca i32, align 4
  %10 = alloca i32, align 4
  %11 = alloca i32, align 4
  %12 = alloca i32, align 4
  store i32 0, i32* %3, align 4
  store i32 %0, i32* %4, align 4
  store i8** %1, i8*** %5, align 8
  %13 = bitcast [12 x i32]* %6 to i8*
  call void @llvm.memcpy.p0i8.p0i8.i64(i8* align 16 %13, i8* align 16 bitcast ([12 x i32]* @__const.main.days to i8*), i64 48, i1 false)
  store i32 0, i32* %10, align 4
  %14 = call i32 (i8*, ...) @__isoc99_scanf(i8* getelementptr inbounds ([9 x i8], [9 x i8]* @.str, i64 0, i64 0), i32* %7, i32* %8, i32* %9)
  store i32 0, i32* %12, align 4
  br label %15

15:                                               ; preds = %31, %2
  %16 = load i32, i32* %12, align 4
  %17 = icmp slt i32 %16, 12
  br i1 %17, label %18, label %34

18:                                               ; preds = %15
  %19 = load i32, i32* %12, align 4
  %20 = add nsw i32 %19, 1
  %21 = load i32, i32* %8, align 4
  %22 = icmp eq i32 %20, %21
  br i1 %22, label %23, label %24

23:                                               ; preds = %18
  br label %34

24:                                               ; preds = %18
  %25 = load i32, i32* %10, align 4
  %26 = load i32, i32* %12, align 4
  %27 = sext i32 %26 to i64
  %28 = getelementptr inbounds [12 x i32], [12 x i32]* %6, i64 0, i64 %27
  %29 = load i32, i32* %28, align 4
  %30 = add nsw i32 %25, %29
  store i32 %30, i32* %10, align 4
  br label %31

31:                                               ; preds = %24
  %32 = load i32, i32* %12, align 4
  %33 = add nsw i32 %32, 1
  store i32 %33, i32* %12, align 4
  br label %15

34:                                               ; preds = %23, %15
  %35 = load i32, i32* %10, align 4
  %36 = load i32, i32* %9, align 4
  %37 = add nsw i32 %35, %36
  store i32 %37, i32* %11, align 4
  %38 = load i32, i32* %7, align 4
  %39 = srem i32 %38, 4
  %40 = icmp eq i32 %39, 0
  br i1 %40, label %41, label %45

41:                                               ; preds = %34
  %42 = load i32, i32* %7, align 4
  %43 = srem i32 %42, 100
  %44 = icmp ne i32 %43, 0
  br i1 %44, label %49, label %45

45:                                               ; preds = %41, %34
  %46 = load i32, i32* %7, align 4
  %47 = srem i32 %46, 400
  %48 = icmp eq i32 %47, 0
  br i1 %48, label %49, label %64

49:                                               ; preds = %45, %41
  %50 = load i32, i32* %8, align 4
  %51 = icmp sle i32 %50, 2
  br i1 %51, label %52, label %55

52:                                               ; preds = %49
  %53 = load i32, i32* %11, align 4
  %54 = call i32 (i8*, ...) @printf(i8* getelementptr inbounds ([3 x i8], [3 x i8]* @.str.1, i64 0, i64 0), i32 %53)
  br label %55

55:                                               ; preds = %52, %49
  %56 = load i32, i32* %8, align 4
  %57 = icmp sgt i32 %56, 2
  br i1 %57, label %58, label %63

58:                                               ; preds = %55
  %59 = load i32, i32* %11, align 4
  %60 = add nsw i32 %59, 1
  store i32 %60, i32* %11, align 4
  %61 = load i32, i32* %11, align 4
  %62 = call i32 (i8*, ...) @printf(i8* getelementptr inbounds ([3 x i8], [3 x i8]* @.str.1, i64 0, i64 0), i32 %61)
  br label %63

63:                                               ; preds = %58, %55
  br label %67

64:                                               ; preds = %45
  %65 = load i32, i32* %11, align 4
  %66 = call i32 (i8*, ...) @printf(i8* getelementptr inbounds ([3 x i8], [3 x i8]* @.str.1, i64 0, i64 0), i32 %65)
  br label %67

67:                                               ; preds = %64, %63
  ret i32 0
}

; Function Attrs: argmemonly nounwind willreturn
declare void @llvm.memcpy.p0i8.p0i8.i64(i8* noalias nocapture writeonly, i8* noalias nocapture readonly, i64, i1 immarg) #1

declare dso_local i32 @__isoc99_scanf(i8*, ...) #2

declare dso_local i32 @printf(i8*, ...) #2


!llvm.module.flags = !{!0}
!llvm.ident = !{!1}

!0 = !{i32 1, !"wchar_size", i32 4}
!1 = !{!"clang version 10.0.0-4ubuntu1 "}
