; ModuleID = 'source-C-CXX/10/596.c'
source_filename = "source-C-CXX/10/596.c"
target datalayout = "e-m:e-p270:32:32-p271:32:32-p272:64:64-i64:64-f80:128-n8:16:32:64-S128"
target triple = "x86_64-pc-linux-gnu"

@.str = private unnamed_addr constant [9 x i8] c"%d %d %d\00", align 1
@.str.1 = private unnamed_addr constant [3 x i8] c"%d\00", align 1
@switch.table.main = private unnamed_addr constant [12 x i32] [i32 0, i32 31, i32 59, i32 90, i32 120, i32 151, i32 181, i32 212, i32 243, i32 273, i32 304, i32 334], align 4

; Function Attrs: nofree nounwind sspstrong uwtable
define dso_local i32 @main(i32 %0, i8** nocapture readnone %1) local_unnamed_addr #0 {
  %3 = alloca i32, align 4
  %4 = alloca i32, align 4
  %5 = alloca i32, align 4
  %6 = bitcast i32* %3 to i8*
  call void @llvm.lifetime.start.p0i8(i64 4, i8* nonnull %6) #3
  %7 = bitcast i32* %4 to i8*
  call void @llvm.lifetime.start.p0i8(i64 4, i8* nonnull %7) #3
  %8 = bitcast i32* %5 to i8*
  call void @llvm.lifetime.start.p0i8(i64 4, i8* nonnull %8) #3
  %9 = call i32 (i8*, ...) @__isoc99_scanf(i8* getelementptr inbounds ([9 x i8], [9 x i8]* @.str, i64 0, i64 0), i32* nonnull %3, i32* nonnull %4, i32* nonnull %5)
  %10 = load i32, i32* %4, align 4
  %11 = add i32 %10, -1
  %12 = icmp ult i32 %11, 12
  br i1 %12, label %13, label %17

13:                                               ; preds = %2
  %14 = sext i32 %11 to i64
  %15 = getelementptr inbounds [12 x i32], [12 x i32]* @switch.table.main, i64 0, i64 %14
  %16 = load i32, i32* %15, align 4
  br label %17

17:                                               ; preds = %2, %13
  %18 = phi i32 [ %16, %13 ], [ 365, %2 ]
  %19 = load i32, i32* %5, align 4, !tbaa !5
  %20 = add nsw i32 %19, %18
  %21 = load i32, i32* %3, align 4, !tbaa !5
  %22 = and i32 %21, 3
  %23 = icmp eq i32 %22, 0
  %24 = srem i32 %21, 100
  %25 = icmp ne i32 %24, 0
  %26 = and i1 %23, %25
  %27 = srem i32 %21, 400
  %28 = icmp eq i32 %27, 0
  %29 = select i1 %26, i1 true, i1 %28
  br i1 %29, label %30, label %38

30:                                               ; preds = %17
  %31 = icmp slt i32 %10, 3
  br i1 %31, label %32, label %36

32:                                               ; preds = %30
  %33 = call i32 (i8*, ...) @printf(i8* nonnull dereferenceable(1) getelementptr inbounds ([3 x i8], [3 x i8]* @.str.1, i64 0, i64 0), i32 %20)
  %34 = load i32, i32* %4, align 4, !tbaa !5
  %35 = icmp sgt i32 %34, 2
  br i1 %35, label %36, label %41

36:                                               ; preds = %30, %32
  %37 = add nsw i32 %20, 1
  br label %38

38:                                               ; preds = %17, %36
  %39 = phi i32 [ %37, %36 ], [ %20, %17 ]
  %40 = call i32 (i8*, ...) @printf(i8* nonnull dereferenceable(1) getelementptr inbounds ([3 x i8], [3 x i8]* @.str.1, i64 0, i64 0), i32 %39)
  br label %41

41:                                               ; preds = %38, %32
  call void @llvm.lifetime.end.p0i8(i64 4, i8* nonnull %8) #3
  call void @llvm.lifetime.end.p0i8(i64 4, i8* nonnull %7) #3
  call void @llvm.lifetime.end.p0i8(i64 4, i8* nonnull %6) #3
  ret i32 0
}

; Function Attrs: argmemonly mustprogress nofree nosync nounwind willreturn
declare void @llvm.lifetime.start.p0i8(i64 immarg, i8* nocapture) #1

; Function Attrs: nofree nounwind
declare noundef i32 @__isoc99_scanf(i8* nocapture noundef readonly, ...) local_unnamed_addr #2

; Function Attrs: nofree nounwind
declare noundef i32 @printf(i8* nocapture noundef readonly, ...) local_unnamed_addr #2

; Function Attrs: argmemonly mustprogress nofree nosync nounwind willreturn
declare void @llvm.lifetime.end.p0i8(i64 immarg, i8* nocapture) #1


!llvm.module.flags = !{!0, !1, !2, !3}
!llvm.ident = !{!4}

!0 = !{i32 1, !"wchar_size", i32 4}
!1 = !{i32 7, !"PIC Level", i32 2}
!2 = !{i32 7, !"PIE Level", i32 2}
!3 = !{i32 7, !"uwtable", i32 1}
!4 = !{!"clang version 13.0.0"}
!5 = !{!6, !6, i64 0}
!6 = !{!"int", !7, i64 0}
!7 = !{!"omnipotent char", !8, i64 0}
!8 = !{!"Simple C/C++ TBAA"}
